; Function Attrs: nounwind uwtable
define void @PMIx_Disk_stats_free(ptr noundef captures(address_is_null) %0, i64 noundef %1) local_unnamed_addr #6 {
  %.not.i = icmp eq ptr %0, null
  br i1 %.not.i, label %pmix_bfrops_base_tma_disk_stats_free.exit, label %.preheader.i

.preheader.i:                                     ; preds = %2
  %.not2.i = icmp eq i64 %1, 0
  br i1 %.not2.i, label %._crit_edge.i, label %.lr.ph.i

._crit_edge.i:                                    ; preds = %pmix_bfrops_base_tma_disk_stats_destruct.exit.i, %.preheader.i
  tail call void @free(ptr noundef nonnull %0) #44
  br label %pmix_bfrops_base_tma_disk_stats_free.exit

.lr.ph.i:                                         ; preds = %.preheader.i, %pmix_bfrops_base_tma_disk_stats_destruct.exit.i
  %.01.i = phi i64 [ %6, %pmix_bfrops_base_tma_disk_stats_destruct.exit.i ], [ 0, %.preheader.i ]
  %3 = getelementptr inbounds nuw %struct.pmix_disk_stats_t, ptr %0, i64 %.01.i
  %4 = load ptr, ptr %3, align 8, !tbaa !66
  %.not.i.i = icmp eq ptr %4, null
  br i1 %.not.i.i, label %pmix_bfrops_base_tma_disk_stats_destruct.exit.i, label %5

5:                                                ; preds = %.lr.ph.i
  tail call void @free(ptr noundef nonnull %4) #44
  store ptr null, ptr %3, align 8, !tbaa !66
  br label %pmix_bfrops_base_tma_disk_stats_destruct.exit.i

pmix_bfrops_base_tma_disk_stats_destruct.exit.i:  ; preds = %5, %.lr.ph.i
  %6 = add nuw i64 %.01.i, 1
  %exitcond.not.i = icmp eq i64 %6, %1
  br i1 %exitcond.not.i, label %._crit_edge.i, label %.lr.ph.i, !llvm.loop !110

pmix_bfrops_base_tma_disk_stats_free.exit:        ; preds = %2, %._crit_edge.i
  ret void
}